(dp1
S'files'
p2
(dp3
S'_Library_Python_2_7_site-packages_nose_tools_nontrivial'
p4
(dp5
S'index'
p6
(dp7
S'html_filename'
p8
S'_Library_Python_2_7_site-packages_nose_tools_nontrivial.html'
p9
sS'name'
p10
S'/Library/Python/2.7/site-packages/nose/tools/nontrivial'
p11
sS'nums'
p12
ccopy_reg
_reconstructor
p13
(ccoverage.results
Numbers
p14
c__builtin__
object
p15
NtRp16
(dp17
S'n_files'
p18
I1
sS'n_branches'
p19
I0
sS'n_statements'
p20
I79
sS'n_excluded'
p21
I0
sS'n_partial_branches'
p22
I0
sS'n_missing'
p23
I68
sS'n_missing_branches'
p24
I0
sbssS'hash'
p25
S'j\xbe\xf0\x001=X\xb3w\xc1\x00\xf6\xe7\xc6~\xa1'
p26
ssS'_Library_Python_2_7_site-packages_nosestatus-0_0_1-py2_7_egg_nosestatus_status'
p27
(dp28
g6
(dp29
g8
S'_Library_Python_2_7_site-packages_nosestatus-0_0_1-py2_7_egg_nosestatus_status.html'
p30
sg10
S'/Library/Python/2.7/site-packages/nosestatus-0.0.1-py2.7.egg/nosestatus/status'
p31
sg12
g13
(g14
g15
NtRp32
(dp33
g18
I1
sg19
I0
sg20
I55
sg21
I0
sg22
I0
sg23
I14
sg24
I0
sbssg25
S'E\x17\x0b\xb5o\xd3\x03Z\xfc\x17\xfc\xadH\xbd\xf78'
p34
ssS'_Library_Python_2_7_site-packages_nose___init__'
p35
(dp36
g6
(dp37
g8
S'_Library_Python_2_7_site-packages_nose___init__.html'
p38
sg10
S'/Library/Python/2.7/site-packages/nose/__init__'
p39
sg12
g13
(g14
g15
NtRp40
(dp41
g18
I1
sg19
I0
sg20
I7
sg21
I0
sg22
I0
sg23
I0
sg24
I0
sbssg25
S'\x12\xc1\x0f\xd0\xabq?$T\xdbi\x18j\x04"\r'
p42
ssS'_Library_Python_2_7_site-packages_nose_plugins_logcapture'
p43
(dp44
g6
(dp45
g8
S'_Library_Python_2_7_site-packages_nose_plugins_logcapture.html'
p46
sg10
S'/Library/Python/2.7/site-packages/nose/plugins/logcapture'
p47
sg12
g13
(g14
g15
NtRp48
(dp49
g18
I1
sg19
I0
sg20
I123
sg21
I0
sg22
I0
sg23
I36
sg24
I0
sbssg25
S'I\x89\xb83\xbaA\xcc\xba<\x81\xe8!\x96\xaeU\xa1'
p50
ssS'_Library_Python_2_7_site-packages_nose_tools_trivial'
p51
(dp52
g6
(dp53
g8
S'_Library_Python_2_7_site-packages_nose_tools_trivial.html'
p54
sg10
S'/Library/Python/2.7/site-packages/nose/tools/trivial'
p55
sg12
g13
(g14
g15
NtRp56
(dp57
g18
I1
sg19
I0
sg20
I24
sg21
I0
sg22
I0
sg23
I5
sg24
I0
sbssg25
S'\xf7\xbc\x15.n\xdb\x85\xc5\xa5\x9b$F\xb0o\xd7\xe7'
p58
ssS'_Library_Python_2_7_site-packages_nose_plugins_allmodules'
p59
(dp60
g6
(dp61
g8
S'_Library_Python_2_7_site-packages_nose_plugins_allmodules.html'
p62
sg10
S'/Library/Python/2.7/site-packages/nose/plugins/allmodules'
p63
sg12
g13
(g14
g15
NtRp64
(dp65
g18
I1
sg19
I0
sg20
I11
sg21
I0
sg22
I0
sg23
I3
sg24
I0
sbssg25
S'\xc2,\x87t\r\x1bQ!I\xd9^\x0fS\xc6\xb4!'
p66
ssS'_Library_Python_2_7_site-packages_nose_config'
p67
(dp68
g6
(dp69
g8
S'_Library_Python_2_7_site-packages_nose_config.html'
p70
sg10
S'/Library/Python/2.7/site-packages/nose/config'
p71
sg12
g13
(g14
g15
NtRp72
(dp73
g18
I1
sg19
I0
sg20
I335
sg21
I0
sg22
I0
sg23
I132
sg24
I0
sbssg25
S'\x0b)\xb9\x9f\xed]g;\xc7\xd1\x1b\rR\x80yA'
p74
ssS'_Library_Python_2_7_site-packages_nose_plugins___init__'
p75
(dp76
g6
(dp77
g8
S'_Library_Python_2_7_site-packages_nose_plugins___init__.html'
p78
sg10
S'/Library/Python/2.7/site-packages/nose/plugins/__init__'
p79
sg12
g13
(g14
g15
NtRp80
(dp81
g18
I1
sg19
I0
sg20
I6
sg21
I0
sg22
I0
sg23
I2
sg24
I0
sbssg25
S'\x0bK!\xe8\xb5T}\xbe1\xf3\xaa\x86\xfa\xee\xc4\x9d'
p82
ssS'_Library_Python_2_7_site-packages_nose_plugins_deprecated'
p83
(dp84
g6
(dp85
g8
S'_Library_Python_2_7_site-packages_nose_plugins_deprecated.html'
p86
sg10
S'/Library/Python/2.7/site-packages/nose/plugins/deprecated'
p87
sg12
g13
(g14
g15
NtRp88
(dp89
g18
I1
sg19
I0
sg20
I16
sg21
I0
sg22
I0
sg23
I2
sg24
I0
sbssg25
S"\xb2\xbf\xc3F\xca'\xc1MH\xa3\x8e\xe1\xc8\x07!>"
p90
ssS'_Library_Python_2_7_site-packages_nose_plugins_errorclass'
p91
(dp92
g6
(dp93
g8
S'_Library_Python_2_7_site-packages_nose_plugins_errorclass.html'
p94
sg10
S'/Library/Python/2.7/site-packages/nose/plugins/errorclass'
p95
sg12
g13
(g14
g15
NtRp96
(dp97
g18
I1
sg19
I0
sg20
I65
sg21
I0
sg22
I0
sg23
I20
sg24
I0
sbssg25
S'\xd4\x92G\xf9N\x04\xe8\x10\xdfO\xd7jI\x1c\x1d\xe8'
p98
ssS'_Library_Python_2_7_site-packages_nose_plugins_testid'
p99
(dp100
g6
(dp101
g8
S'_Library_Python_2_7_site-packages_nose_plugins_testid.html'
p102
sg10
S'/Library/Python/2.7/site-packages/nose/plugins/testid'
p103
sg12
g13
(g14
g15
NtRp104
(dp105
g18
I1
sg19
I0
sg20
I133
sg21
I0
sg22
I0
sg23
I95
sg24
I0
sbssg25
S'\xff/\xc7\x94\xb3n\xea\x0c\x90\xd8Z\xca\xd8\x8a\x12\xe7'
p106
ssS'_Library_Python_2_7_site-packages_nose_case'
p107
(dp108
g6
(dp109
g8
S'_Library_Python_2_7_site-packages_nose_case.html'
p110
sg10
S'/Library/Python/2.7/site-packages/nose/case'
p111
sg12
g13
(g14
g15
NtRp112
(dp113
g18
I1
sg19
I0
sg20
I204
sg21
I0
sg22
I0
sg23
I100
sg24
I0
sbssg25
S'\xa3\xeb~L\x96\x18\xb8\xa1\xc5\x1b~\xe7kWY)'
p114
ssS'_Library_Python_2_7_site-packages_nose_exc'
p115
(dp116
g6
(dp117
g8
S'_Library_Python_2_7_site-packages_nose_exc.html'
p118
sg10
S'/Library/Python/2.7/site-packages/nose/exc'
p119
sg12
g13
(g14
g15
NtRp120
(dp121
g18
I1
sg19
I0
sg20
I2
sg21
I0
sg22
I0
sg23
I0
sg24
I0
sbssg25
S'\x0c\x9b\\\x00\x91N\xdd\xa8\xb2,z\xe6\xee\x00K\xac'
p122
ssS'_Library_Python_2_7_site-packages_nose_plugins_doctests'
p123
(dp124
g6
(dp125
g8
S'_Library_Python_2_7_site-packages_nose_plugins_doctests.html'
p126
sg10
S'/Library/Python/2.7/site-packages/nose/plugins/doctests'
p127
sg12
g13
(g14
g15
NtRp128
(dp129
g18
I1
sg19
I0
sg20
I217
sg21
I0
sg22
I0
sg23
I145
sg24
I0
sbssg25
S'\xf13\x11\xb8\xfa\xc9\xd8\x8dk\xb9\xaf\x1ej\x8fm\xa2'
p130
ssS'_usr_local_bin_nosetests'
p131
(dp132
g6
(dp133
g8
S'_usr_local_bin_nosetests.html'
p134
sg10
S'/usr/local/bin/nosetests'
p135
sg12
g13
(g14
g15
NtRp136
(dp137
g18
I1
sg19
I0
sg20
I4
sg21
I0
sg22
I0
sg23
I0
sg24
I0
sbssg25
S'\xb0\x8a\xff\xc0zU\x90\xd3\x13^\xe3Yr\x01\xe1!'
p138
ssS'_Library_Python_2_7_site-packages_nose_plugins_builtin'
p139
(dp140
g6
(dp141
g8
S'_Library_Python_2_7_site-packages_nose_plugins_builtin.html'
p142
sg10
S'/Library/Python/2.7/site-packages/nose/plugins/builtin'
p143
sg12
g13
(g14
g15
NtRp144
(dp145
g18
I1
sg19
I0
sg20
I12
sg21
I0
sg22
I0
sg23
I4
sg24
I0
sbssg25
S'6d\xf0G\xb8\x0f3\xf7\x19\xf5E\x18\x8e\r\x9b2'
p146
ssS'_Library_Python_2_7_site-packages_nose_loader'
p147
(dp148
g6
(dp149
g8
S'_Library_Python_2_7_site-packages_nose_loader.html'
p150
sg10
S'/Library/Python/2.7/site-packages/nose/loader'
p151
sg12
g13
(g14
g15
NtRp152
(dp153
g18
I1
sg19
I0
sg20
I342
sg21
I0
sg22
I0
sg23
I260
sg24
I0
sbssg25
S'C\xda\xfb\x82\x15\xec\x83~\xd0aFH7\xee\xf1\xa7'
p154
ssS'_Library_Python_2_7_site-packages_nose_tools___init__'
p155
(dp156
g6
(dp157
g8
S'_Library_Python_2_7_site-packages_nose_tools___init__.html'
p158
sg10
S'/Library/Python/2.7/site-packages/nose/tools/__init__'
p159
sg12
g13
(g14
g15
NtRp160
(dp161
g18
I1
sg19
I0
sg20
I2
sg21
I0
sg22
I0
sg23
I0
sg24
I0
sbssg25
S't9FZ\xac\xfc\xf2\xb4\xa7&W\xff\xbd\xeb\xb2\xf9'
p162
ssS'_Library_Python_2_7_site-packages_nosestatus-0_0_1-py2_7_egg_nosestatus_section'
p163
(dp164
g6
(dp165
g8
S'_Library_Python_2_7_site-packages_nosestatus-0_0_1-py2_7_egg_nosestatus_section.html'
p166
sg10
S'/Library/Python/2.7/site-packages/nosestatus-0.0.1-py2.7.egg/nosestatus/section'
p167
sg12
g13
(g14
g15
NtRp168
(dp169
g18
I1
sg19
I0
sg20
I35
sg21
I0
sg22
I0
sg23
I9
sg24
I0
sbssg25
S'Eq\x98\xc6\xb8\xce\xbd|\x99\n\xd2\xc7\xa3|\xe2\xd7'
p170
ssS'_Library_Python_2_7_site-packages_nose_plugins_isolate'
p171
(dp172
g6
(dp173
g8
S'_Library_Python_2_7_site-packages_nose_plugins_isolate.html'
p174
sg10
S'/Library/Python/2.7/site-packages/nose/plugins/isolate'
p175
sg12
g13
(g14
g15
NtRp176
(dp177
g18
I1
sg19
I0
sg20
I34
sg21
I0
sg22
I0
sg23
I20
sg24
I0
sbssg25
S'\xb1\xd6^k\xc5?\xb3N\x05\x8b\xbb\xefV\xfeF\xf6'
p178
ssS'_Library_Python_2_7_site-packages_nose_plugins_base'
p179
(dp180
g6
(dp181
g8
S'_Library_Python_2_7_site-packages_nose_plugins_base.html'
p182
sg10
S'/Library/Python/2.7/site-packages/nose/plugins/base'
p183
sg12
g13
(g14
g15
NtRp184
(dp185
g18
I1
sg19
I0
sg20
I195
sg21
I0
sg22
I0
sg23
I59
sg24
I0
sbssg25
S'd\xaf\x9a\xe0\x87\xf4\x1c\xf5\x07\xd1\xc2\xdfMIB\xd1'
p186
ssS'_Library_Python_2_7_site-packages_nose_suite'
p187
(dp188
g6
(dp189
g8
S'_Library_Python_2_7_site-packages_nose_suite.html'
p190
sg10
S'/Library/Python/2.7/site-packages/nose/suite'
p191
sg12
g13
(g14
g15
NtRp192
(dp193
g18
I1
sg19
I0
sg20
I394
sg21
I0
sg22
I0
sg23
I162
sg24
I0
sbssg25
S'y\x08P\xe0\xb4\xbd\x13v\xc1\xe9"\xe5\xfa\xe6\x81*'
p194
ssS'_Library_Python_2_7_site-packages_nose_plugins_debug'
p195
(dp196
g6
(dp197
g8
S'_Library_Python_2_7_site-packages_nose_plugins_debug.html'
p198
sg10
S'/Library/Python/2.7/site-packages/nose/plugins/debug'
p199
sg12
g13
(g14
g15
NtRp200
(dp201
g18
I1
sg19
I0
sg20
I30
sg21
I0
sg22
I0
sg23
I13
sg24
I0
sbssg25
S'\x88$;q\x15\xc8<_\xf1AcDt\xd6G\xd9'
p202
ssS'_Library_Python_2_7_site-packages_nose_plugins_failuredetail'
p203
(dp204
g6
(dp205
g8
S'_Library_Python_2_7_site-packages_nose_plugins_failuredetail.html'
p206
sg10
S'/Library/Python/2.7/site-packages/nose/plugins/failuredetail'
p207
sg12
g13
(g14
g15
NtRp208
(dp209
g18
I1
sg19
I0
sg20
I16
sg21
I0
sg22
I0
sg23
I5
sg24
I0
sbssg25
S'n\xe3$\x97k\xc6h\xb3a\x06v/\x96\xa9\x18\xae'
p210
ssS'_Library_Python_2_7_site-packages_nose_importer'
p211
(dp212
g6
(dp213
g8
S'_Library_Python_2_7_site-packages_nose_importer.html'
p214
sg10
S'/Library/Python/2.7/site-packages/nose/importer'
p215
sg12
g13
(g14
g15
NtRp216
(dp217
g18
I1
sg19
I0
sg20
I92
sg21
I0
sg22
I0
sg23
I39
sg24
I0
sbssg25
S'\x91]e!L9\xf3\xaf\xd7L\xe4\x81<G\x04:'
p218
ssS'_Library_Python_2_7_site-packages_pkg_resources'
p219
(dp220
g6
(dp221
g8
S'_Library_Python_2_7_site-packages_pkg_resources.html'
p222
sg10
S'/Library/Python/2.7/site-packages/pkg_resources'
p223
sg12
g13
(g14
g15
NtRp224
(dp225
g18
I1
sg19
I0
sg20
I1247
sg21
I0
sg22
I0
sg23
I992
sg24
I0
sbssg25
S'\x80\x8a_\x92<\xba\xa9\xd4\x82\x13\x92u\xded\xf9\xe2'
p226
ssS'_Library_Python_2_7_site-packages_nose_plugins_skip'
p227
(dp228
g6
(dp229
g8
S'_Library_Python_2_7_site-packages_nose_plugins_skip.html'
p230
sg10
S'/Library/Python/2.7/site-packages/nose/plugins/skip'
p231
sg12
g13
(g14
g15
NtRp232
(dp233
g18
I1
sg19
I0
sg20
I19
sg21
I0
sg22
I0
sg23
I5
sg24
I0
sbssg25
S'\xb2\x01\xd5\x1c\xbfP\xc2I`\xb3~(\xb6\xce\xf1%'
p234
ssS'_Library_Python_2_7_site-packages_nose_plugins_capture'
p235
(dp236
g6
(dp237
g8
S'_Library_Python_2_7_site-packages_nose_plugins_capture.html'
p238
sg10
S'/Library/Python/2.7/site-packages/nose/plugins/capture'
p239
sg12
g13
(g14
g15
NtRp240
(dp241
g18
I1
sg19
I0
sg20
I64
sg21
I0
sg22
I0
sg23
I16
sg24
I0
sbssg25
S'\xaa?"P\xd5\xbbg\xfe\xca\xfc\xad\x83}\x13\x1d\x96'
p242
ssS'_Library_Python_2_7_site-packages_nose_failure'
p243
(dp244
g6
(dp245
g8
S'_Library_Python_2_7_site-packages_nose_failure.html'
p246
sg10
S'/Library/Python/2.7/site-packages/nose/failure'
p247
sg12
g13
(g14
g15
NtRp248
(dp249
g18
I1
sg19
I0
sg20
I22
sg21
I0
sg22
I0
sg23
I2
sg24
I0
sbssg25
S'\t\x1f\xc6\xb9\xa8\xd1\x91\x97\x93m\xd3z\xe9\xd3\t7'
p250
ssS'_Library_Python_2_7_site-packages_nose_plugins_collect'
p251
(dp252
g6
(dp253
g8
S'_Library_Python_2_7_site-packages_nose_plugins_collect.html'
p254
sg10
S'/Library/Python/2.7/site-packages/nose/plugins/collect'
p255
sg12
g13
(g14
g15
NtRp256
(dp257
g18
I1
sg19
I0
sg20
I42
sg21
I0
sg22
I0
sg23
I24
sg24
I0
sbssg25
S'\xbae{\xd0\xe6\xfc]\x8a\x83\x86\xbd3\xd0f\x86\xd4'
p258
ssS'_Library_Python_2_7_site-packages_nose_plugins_xunit'
p259
(dp260
g6
(dp261
g8
S'_Library_Python_2_7_site-packages_nose_plugins_xunit.html'
p262
sg10
S'/Library/Python/2.7/site-packages/nose/plugins/xunit'
p263
sg12
g13
(g14
g15
NtRp264
(dp265
g18
I1
sg19
I0
sg20
I110
sg21
I0
sg22
I0
sg23
I72
sg24
I0
sbssg25
S"n!\x7f\x9d*,\x1cn\xfbQl0n\xa0'("
p266
ssS'_Library_Python_2_7_site-packages_nose_plugins_manager'
p267
(dp268
g6
(dp269
g8
S'_Library_Python_2_7_site-packages_nose_plugins_manager.html'
p270
sg10
S'/Library/Python/2.7/site-packages/nose/plugins/manager'
p271
sg12
g13
(g14
g15
NtRp272
(dp273
g18
I1
sg19
I0
sg20
I265
sg21
I0
sg22
I0
sg23
I111
sg24
I0
sbssg25
S'\xc6\xf2\xd1{K\xd3\x021GD\x13\x13\xd5(!\xc3'
p274
ssS'_Library_Python_2_7_site-packages_nose_plugins_cover'
p275
(dp276
g6
(dp277
g8
S'_Library_Python_2_7_site-packages_nose_plugins_cover.html'
p278
sg10
S'/Library/Python/2.7/site-packages/nose/plugins/cover'
p279
sg12
g13
(g14
g15
NtRp280
(dp281
g18
I1
sg19
I0
sg20
I129
sg21
I0
sg22
I0
sg23
I76
sg24
I0
sbssg25
S'\x19F\x18\x90\xc6\xf6\xa6-\x92\x9fN\x92\xb3\xf7\x8b\x9f'
p282
ssS'_Library_Python_2_7_site-packages_nose_selector'
p283
(dp284
g6
(dp285
g8
S'_Library_Python_2_7_site-packages_nose_selector.html'
p286
sg10
S'/Library/Python/2.7/site-packages/nose/selector'
p287
sg12
g13
(g14
g15
NtRp288
(dp289
g18
I1
sg19
I0
sg20
I134
sg21
I0
sg22
I0
sg23
I83
sg24
I0
sbssg25
S'&m\x8d\xe9%E,c\xbdU+r\x10\xb9\xe76'
p290
ssS'_Library_Python_2_7_site-packages_nose_result'
p291
(dp292
g6
(dp293
g8
S'_Library_Python_2_7_site-packages_nose_result.html'
p294
sg10
S'/Library/Python/2.7/site-packages/nose/result'
p295
sg12
g13
(g14
g15
NtRp296
(dp297
g18
I1
sg19
I0
sg20
I131
sg21
I0
sg22
I0
sg23
I51
sg24
I0
sbssg25
S'V(\x90\xe8\xb4\x9f\x01SU\xcc\x86c\r^\xfaj'
p298
ssS'_Library_Python_2_7_site-packages_nosestatus-0_0_1-py2_7_egg_nosestatus_plugin'
p299
(dp300
g6
(dp301
g8
S'_Library_Python_2_7_site-packages_nosestatus-0_0_1-py2_7_egg_nosestatus_plugin.html'
p302
sg10
S'/Library/Python/2.7/site-packages/nosestatus-0.0.1-py2.7.egg/nosestatus/plugin'
p303
sg12
g13
(g14
g15
NtRp304
(dp305
g18
I1
sg19
I0
sg20
I13
sg21
I0
sg22
I0
sg23
I0
sg24
I0
sbssg25
S'O\xfe>\x16\xe6\xbd\xc6-M-\xf9D\xee\xf4\x97B'
p306
ssS'_Library_Python_2_7_site-packages_nose_util'
p307
(dp308
g6
(dp309
g8
S'_Library_Python_2_7_site-packages_nose_util.html'
p310
sg10
S'/Library/Python/2.7/site-packages/nose/util'
p311
sg12
g13
(g14
g15
NtRp312
(dp313
g18
I1
sg19
I0
sg20
I350
sg21
I0
sg22
I0
sg23
I231
sg24
I0
sbssg25
S'\xf0bh\xb5\x07)t\xdeL\xe0/n\x1b_B\xd4'
p314
ssS'_Library_Python_2_7_site-packages_nose_proxy'
p315
(dp316
g6
(dp317
g8
S'_Library_Python_2_7_site-packages_nose_proxy.html'
p318
sg10
S'/Library/Python/2.7/site-packages/nose/proxy'
p319
sg12
g13
(g14
g15
NtRp320
(dp321
g18
I1
sg19
I0
sg20
I111
sg21
I0
sg22
I0
sg23
I40
sg24
I0
sbssg25
S'\xdf\xab\xc4<\x06\xe5\xf4\x82\xe5\xcb\xf8\xda\x0f\x969\x1f'
p322
ssS'_Library_Python_2_7_site-packages_nosestatus-0_0_1-py2_7_egg_nosestatus___init__'
p323
(dp324
g6
(dp325
g8
S'_Library_Python_2_7_site-packages_nosestatus-0_0_1-py2_7_egg_nosestatus___init__.html'
p326
sg10
S'/Library/Python/2.7/site-packages/nosestatus-0.0.1-py2.7.egg/nosestatus/__init__'
p327
sg12
g13
(g14
g15
NtRp328
(dp329
g18
I1
sg19
I0
sg20
I21
sg21
I0
sg22
I0
sg23
I4
sg24
I0
sbssg25
S'\x11\x95\tY\x1b\xfe,7p2\x11\x18\xca\x1b\xe8\xde'
p330
ssS'_Library_Python_2_7_site-packages_nose_plugins_attrib'
p331
(dp332
g6
(dp333
g8
S'_Library_Python_2_7_site-packages_nose_plugins_attrib.html'
p334
sg10
S'/Library/Python/2.7/site-packages/nose/plugins/attrib'
p335
sg12
g13
(g14
g15
NtRp336
(dp337
g18
I1
sg19
I0
sg20
I103
sg21
I0
sg22
I0
sg23
I73
sg24
I0
sbssg25
S'\x10\x15\xa3\x8f\xf1\x07%3\xef\xff\x1f\xb3\xd6\xc7\xd0\xa1'
p338
ssS'_Library_Python_2_7_site-packages_nose_inspector'
p339
(dp340
g6
(dp341
g8
S'_Library_Python_2_7_site-packages_nose_inspector.html'
p342
sg10
S'/Library/Python/2.7/site-packages/nose/inspector'
p343
sg12
g13
(g14
g15
NtRp344
(dp345
g18
I1
sg19
I0
sg20
I122
sg21
I0
sg22
I0
sg23
I107
sg24
I0
sbssg25
S'nB\x13\x83\x83\x8eh\xeb\x9d\xe3\x8f\xb5<\xcb\xb1\x9e'
p346
ssS'_Library_Python_2_7_site-packages_nose_core'
p347
(dp348
g6
(dp349
g8
S'_Library_Python_2_7_site-packages_nose_core.html'
p350
sg10
S'/Library/Python/2.7/site-packages/nose/core'
p351
sg12
g13
(g14
g15
NtRp352
(dp353
g18
I1
sg19
I0
sg20
I156
sg21
I0
sg22
I0
sg23
I58
sg24
I0
sbssg25
S'\xc7\xdcXiU\x12\xb316\xae\xf7\xfb\x0f\xbf_\xea'
p354
ssS'_Library_Python_2_7_site-packages_nose_pyversion'
p355
(dp356
g6
(dp357
g8
S'_Library_Python_2_7_site-packages_nose_pyversion.html'
p358
sg10
S'/Library/Python/2.7/site-packages/nose/pyversion'
p359
sg12
g13
(g14
g15
NtRp360
(dp361
g18
I1
sg19
I0
sg20
I78
sg21
I0
sg22
I0
sg23
I48
sg24
I0
sbssg25
S'\xe6\xd5l\xd4\xbelzK\x99\xac\x15\xe4\xf3>2\x05'
p362
ssS'_Library_Python_2_7_site-packages_nose_plugins_prof'
p363
(dp364
g6
(dp365
g8
S'_Library_Python_2_7_site-packages_nose_plugins_prof.html'
p366
sg10
S'/Library/Python/2.7/site-packages/nose/plugins/prof'
p367
sg12
g13
(g14
g15
NtRp368
(dp369
g18
I1
sg19
I0
sg20
I93
sg21
I0
sg22
I0
sg23
I56
sg24
I0
sbssg25
S'\xd6<\xeb\xe2\xd7(:\xcdT\xd8\x03\xde\x8f\xe0y\xae'
p370
ssS'_Library_Python_2_7_site-packages_nose_plugins_plugintest'
p371
(dp372
g6
(dp373
g8
S'_Library_Python_2_7_site-packages_nose_plugins_plugintest.html'
p374
sg10
S'/Library/Python/2.7/site-packages/nose/plugins/plugintest'
p375
sg12
g13
(g14
g15
NtRp376
(dp377
g18
I1
sg19
I0
sg20
I155
sg21
I0
sg22
I0
sg23
I111
sg24
I0
sbssg25
S'\xe6q\xeb!z\xea\x11\x88\x99\xa5\xc6\x94\xc6\xc8\x8a"'
p378
ssS'_Library_Python_2_7_site-packages_nose_plugins_multiprocess'
p379
(dp380
g6
(dp381
g8
S'_Library_Python_2_7_site-packages_nose_plugins_multiprocess.html'
p382
sg10
S'/Library/Python/2.7/site-packages/nose/plugins/multiprocess'
p383
sg12
g13
(g14
g15
NtRp384
(dp385
g18
I1
sg19
I0
sg20
I483
sg21
I0
sg22
I0
sg23
I403
sg24
I0
sbssg25
S'\x07=p&\x03\xd4\x0e{\xf5;\xb9\xdb\x1d\xd6\xa8Q'
p386
sssS'version'
p387
S'3.6b1'
p388
sS'settings'
p389
S"\xd5\xb6M\xc2\x8c\xba\xe7\xb6\x14\xcb'\xcb\x90~\x00h"
p390
sS'format'
p391
I1
s.